target datalayout = "e-m:e-p270:32:32-p271:32:32-p272:64:64-i64:64-i128:128-f80:128-n8:16:32:64-S128"
target triple = "x86_64-pc-linux-gnu"

%struct._zend_refcounted_h = type { i32, %union.anon.3 }
%union.anon.3 = type { i32 }
%struct.__va_list_tag = type { i32, i32, ptr, ptr }

@zend_error_cb = external global ptr, align 8
@zend_observer_errors_observed = external global i8, align 1

; Function Attrs: nounwind uwtable
define internal void @zend_observer_error_notify(i32 noundef %0, ptr noundef %1, i32 noundef %2, ptr noundef %3) #0 {
  %5 = alloca i32, align 4
  %6 = alloca ptr, align 8
  %7 = alloca i32, align 4
  %8 = alloca ptr, align 8
  store i32 %0, ptr %5, align 4
  store ptr %1, ptr %6, align 8
  store i32 %2, ptr %7, align 4
  store ptr %3, ptr %8, align 8
  %9 = load i8, ptr @zend_observer_errors_observed, align 1
  %10 = trunc i8 %9 to i1
  %11 = xor i1 %10, true
  %12 = xor i1 %11, true
  %13 = zext i1 %12 to i32
  %14 = sext i32 %13 to i64
  %15 = icmp ne i64 %14, 0
  br i1 %15, label %16, label %21

16:                                               ; preds = %4
  %17 = load i32, ptr %5, align 4
  %18 = load ptr, ptr %6, align 8
  %19 = load i32, ptr %7, align 4
  %20 = load ptr, ptr %8, align 8
  call void @_zend_observer_error_notify(i32 noundef %17, ptr noundef %18, i32 noundef %19, ptr noundef %20)
  br label %21

21:                                               ; preds = %16, %4
  ret void
}

; Function Attrs: nounwind uwtable
define internal void @zend_error_va(i32 noundef %0, ptr noundef %1, i32 noundef %2, ptr noundef %3, ...) #0 {
  %5 = alloca i32, align 4
  %6 = alloca i32, align 4
  %7 = alloca ptr, align 8
  %8 = alloca ptr, align 8
  %9 = alloca i32, align 4
  %10 = alloca ptr, align 8
  %11 = alloca i32, align 4
  %12 = alloca ptr, align 8
  %13 = alloca [1 x %struct.__va_list_tag], align 16
  %14 = alloca ptr, align 8
  store i32 %0, ptr %9, align 4
  store ptr %1, ptr %10, align 8
  store i32 %2, ptr %11, align 4
  store ptr %3, ptr %12, align 8
  %15 = getelementptr inbounds [1 x %struct.__va_list_tag], ptr %13, i64 0, i64 0
  call void @llvm.va_start(ptr %15)
  %16 = load ptr, ptr %12, align 8
  %17 = getelementptr inbounds [1 x %struct.__va_list_tag], ptr %13, i64 0, i64 0
  %18 = call ptr @zend_vstrpprintf(i64 noundef 0, ptr noundef %16, ptr noundef %17)
  store ptr %18, ptr %14, align 8
  %19 = load i32, ptr %9, align 4
  %20 = load ptr, ptr %10, align 8
  %21 = load i32, ptr %11, align 4
  %22 = load ptr, ptr %14, align 8
  call void @zend_observer_error_notify(i32 noundef %19, ptr noundef %20, i32 noundef %21, ptr noundef %22)
  %23 = load ptr, ptr @zend_error_cb, align 8
  %24 = load i32, ptr %9, align 4
  %25 = load ptr, ptr %10, align 8
  %26 = load i32, ptr %11, align 4
  %27 = load ptr, ptr %14, align 8
  call void %23(i32 noundef %24, ptr noundef %25, i32 noundef %26, ptr noundef %27)
  %28 = load ptr, ptr %14, align 8
  store ptr %28, ptr %8, align 8
  %29 = load ptr, ptr %8, align 8
  %30 = getelementptr inbounds %struct._zend_refcounted_h, ptr %29, i32 0, i32 1
  %31 = load i32, ptr %30, align 4
  store i32 %31, ptr %5, align 4
  %32 = load i32, ptr %5, align 4
  %33 = and i32 %32, 1008
  %34 = and i32 %33, 64
  %35 = icmp ne i32 %34, 0
  br i1 %35, label %59, label %36

36:                                               ; preds = %4
  %37 = load ptr, ptr %8, align 8
  store ptr %37, ptr %7, align 8
  %38 = load ptr, ptr %7, align 8
  %39 = load i32, ptr %38, align 4
  %40 = icmp ugt i32 %39, 0
  call void @llvm.assume(i1 %40)
  %41 = load ptr, ptr %7, align 8
  %42 = load i32, ptr %41, align 4
  %43 = add i32 %42, -1
  store i32 %43, ptr %41, align 4
  %44 = icmp eq i32 %43, 0
  br i1 %44, label %45, label %58

45:                                               ; preds = %36
  %46 = load ptr, ptr %8, align 8
  %47 = getelementptr inbounds %struct._zend_refcounted_h, ptr %46, i32 0, i32 1
  %48 = load i32, ptr %47, align 4
  store i32 %48, ptr %6, align 4
  %49 = load i32, ptr %6, align 4
  %50 = and i32 %49, 1008
  %51 = and i32 %50, 128
  %52 = icmp ne i32 %51, 0
  br i1 %52, label %53, label %55

53:                                               ; preds = %45
  %54 = load ptr, ptr %8, align 8
  call void @free(ptr noundef %54) #12
  br label %57

55:                                               ; preds = %45
  %56 = load ptr, ptr %8, align 8
  call void @_efree(ptr noundef %56) #12
  br label %57

57:                                               ; preds = %55, %53
  br label %58

58:                                               ; preds = %57, %36
  br label %59

59:                                               ; preds = %58, %4
  %60 = getelementptr inbounds [1 x %struct.__va_list_tag], ptr %13, i64 0, i64 0
  call void @llvm.va_end(ptr %60)
  ret void
}