; Function Attrs: nounwind uwtable
define internal void @zend_error_va(i32 noundef %0, ptr noundef %1, i32 noundef %2, ptr noundef %3, ...) unnamed_addr #0 {
  %5 = alloca [1 x %struct.__va_list_tag], align 16
  call void @llvm.va_start(ptr nonnull %5)
  %6 = call ptr @zend_vstrpprintf(i64 noundef 0, ptr noundef %3, ptr noundef nonnull %5) #15
  %7 = load i8, ptr @zend_observer_errors_observed, align 1
  %8 = and i8 %7, 1
  %.not.i = icmp eq i8 %8, 0
  br i1 %.not.i, label %zend_observer_error_notify.exit, label %9

9:                                                ; preds = %4
  call void @_zend_observer_error_notify(i32 noundef %0, ptr noundef %1, i32 noundef %2, ptr noundef %6) #15
  br label %zend_observer_error_notify.exit

zend_observer_error_notify.exit:                  ; preds = %4, %9
  %10 = load ptr, ptr @zend_error_cb, align 8
  call void %10(i32 noundef %0, ptr noundef %1, i32 noundef %2, ptr noundef %6) #15
  %11 = getelementptr inbounds i8, ptr %6, i64 4
  %12 = load i32, ptr %11, align 4
  %13 = and i32 %12, 64
  %.not = icmp eq i32 %13, 0
  br i1 %.not, label %14, label %23

14:                                               ; preds = %zend_observer_error_notify.exit
  %15 = load i32, ptr %6, align 4
  %16 = icmp ne i32 %15, 0
  call void @llvm.assume(i1 %16)
  %17 = add i32 %15, -1
  store i32 %17, ptr %6, align 4
  %18 = icmp eq i32 %17, 0
  br i1 %18, label %19, label %23

19:                                               ; preds = %14
  %20 = and i32 %12, 128
  %.not18 = icmp eq i32 %20, 0
  br i1 %.not18, label %22, label %21

21:                                               ; preds = %19
  call void @free(ptr noundef nonnull %6) #15
  br label %23

22:                                               ; preds = %19
  call void @_efree(ptr noundef nonnull %6) #15
  br label %23

23:                                               ; preds = %14, %22, %21, %zend_observer_error_notify.exit
  call void @llvm.va_end(ptr nonnull %5)
  ret void
}